target datalayout = "e-m:e-p270:32:32-p271:32:32-p272:64:64-i64:64-i128:128-f80:128-n8:16:32:64-S128"
target triple = "x86_64-unknown-linux-gnu"

%struct.MemoryRegionOps = type { ptr, ptr, ptr, ptr, i32, %struct.anon, %struct.anon.2 }
%struct.anon = type { i32, i32, i8, ptr }
%struct.anon.2 = type { i32, i32, i8 }
%struct.MemoryRegion = type { %struct.Object, i8, i8, i8, i8, i8, i8, i8, i8, i8, i8, ptr, ptr, ptr, ptr, ptr, ptr, i32, i128, i64, ptr, i64, i8, i8, i8, i8, i8, ptr, i64, i32, %union.anon, %union.anon.0, %union.anon.1, ptr, i32, ptr, ptr, i8 }
%struct.Object = type { ptr, ptr, ptr, i32, ptr }
%union.anon = type { %struct.QTailQLink }
%struct.QTailQLink = type { ptr, ptr }
%union.anon.0 = type { %struct.QTailQLink }
%union.anon.1 = type { %struct.QTailQLink }
%struct.PCIVGAState = type { %struct.PCIDevice, %struct.VGACommonState, i32, %struct.qemu_edid_info, %struct.MemoryRegion, [4 x %struct.MemoryRegion], [384 x i8] }
%struct.PCIDevice = type { %struct.DeviceState, i8, i8, ptr, ptr, ptr, ptr, ptr, i32, %struct.PCIReqIDCache, [64 x i8], [7 x %struct.PCIIORegion], %struct.AddressSpace, %struct.MemoryRegion, %struct.MemoryRegion, ptr, ptr, [3 x ptr], i8, i8, i32, i8, i32, ptr, ptr, ptr, ptr, ptr, ptr, %struct.MemoryRegion, %struct.MemoryRegion, %struct.MemoryRegion, ptr, i8, i32, i8, %struct.PCIExpressDevice, ptr, ptr, i32, i8, %struct.MemoryRegion, i32, ptr, ptr, ptr, ptr, ptr, i32 }
%struct.DeviceState = type { %struct.Object, ptr, ptr, i8, i8, i64, ptr, i32, i8, ptr, %struct.NamedGPIOListHead, %struct.NamedClockListHead, %struct.BusStateHead, i32, i32, i32, %struct.ResettableState, ptr, %struct.MemReentrancyGuard }
%struct.NamedGPIOListHead = type { ptr }
%struct.NamedClockListHead = type { ptr }
%struct.BusStateHead = type { ptr }
%struct.ResettableState = type { i32, i8, i8 }
%struct.MemReentrancyGuard = type { i8 }
%struct.PCIReqIDCache = type { ptr, i32 }
%struct.PCIIORegion = type { i64, i64, i8, ptr, ptr }
%struct.AddressSpace = type { %struct.rcu_head, ptr, ptr, ptr, i32, i32, ptr, %union.anon.3, %union.anon.4 }
%struct.rcu_head = type { ptr, ptr }
%union.anon.3 = type { %struct.QTailQLink }
%union.anon.4 = type { %struct.QTailQLink }
%struct.PCIExpressDevice = type { i8, i8, i8, i16, %struct.PCIEAERLog, i16, i16, i16, %struct.PCIESriovPF, %struct.PCIESriovVF }
%struct.PCIEAERLog = type { i16, i16, ptr }
%struct.PCIESriovPF = type { i16, [7 x i8], ptr, ptr }
%struct.PCIESriovVF = type { ptr, i16 }
%struct.VGACommonState = type { ptr, ptr, %struct.MemoryRegion, i32, i32, i32, i32, i32, i8, %struct.MemoryRegion, i8, [256 x i8], [256 x i8], i8, [256 x i8], i8, [21 x i8], i32, i8, [256 x i8], i8, i8, i8, i8, i8, i8, i8, i8, [3 x i8], i32, [768 x i8], i32, ptr, ptr, ptr, %struct.PortioList, %struct.PortioList, i16, [10 x i16], i32, i32, i32, ptr, [2 x i32], i32, i8, i8, i32, i32, i32, i32, i32, i8, i8, i32, i32, i32, i32, i32, i8, i8, i8, i8, i8, i64, i32, ptr, i8, i8, i8, i8, i8, [64 x i32], i32, i32, ptr, ptr, [256 x i32], [16000 x i32], ptr, ptr, %union.vga_retrace, i8 }
%struct.PortioList = type { ptr, ptr, ptr, i32, ptr, ptr, ptr, i8 }
%union.vga_retrace = type { %struct.vga_precise_retrace }
%struct.vga_precise_retrace = type { i64, i64, i32, i32, i32, i32, i32, i32 }
%struct.qemu_edid_info = type { ptr, ptr, ptr, i16, i16, i32, i32, i32, i32, i32 }

@pci_vga_ioport_ops = internal constant %struct.MemoryRegionOps { ptr @pci_vga_ioport_read, ptr @pci_vga_ioport_write, ptr null, ptr null, i32 2, %struct.anon { i32 1, i32 4, i8 0, ptr null }, %struct.anon.2 { i32 1, i32 2, i8 0 } }, align 8
@.str = private unnamed_addr constant [21 x i8] c"vga ioports remapped\00", align 1
@pci_vga_bochs_ops = internal constant %struct.MemoryRegionOps { ptr @pci_vga_bochs_read, ptr @pci_vga_bochs_write, ptr null, ptr null, i32 2, %struct.anon { i32 1, i32 4, i8 0, ptr null }, %struct.anon.2 { i32 2, i32 2, i8 0 } }, align 8
@.str.1 = private unnamed_addr constant [22 x i8] c"bochs dispi interface\00", align 1
@pci_vga_qext_ops = internal constant %struct.MemoryRegionOps { ptr @pci_vga_qext_read, ptr @pci_vga_qext_write, ptr null, ptr null, i32 2, %struct.anon { i32 4, i32 4, i8 0, ptr null }, %struct.anon.2 zeroinitializer }, align 8
@.str.2 = private unnamed_addr constant [19 x i8] c"qemu extended regs\00", align 1

; Function Attrs: nounwind sspstrong uwtable
define dso_local void @pci_std_vga_mmio_region_init(ptr noundef %s, ptr noundef %owner, ptr noundef %parent, ptr noundef %subs, i1 noundef zeroext %qext, i1 noundef zeroext %edid) #0 {
entry:
  %s.addr = alloca ptr, align 8
  %owner.addr = alloca ptr, align 8
  %parent.addr = alloca ptr, align 8
  %subs.addr = alloca ptr, align 8
  %qext.addr = alloca i8, align 1
  %edid.addr = alloca i8, align 1
  %d = alloca ptr, align 8
  %__mptr = alloca ptr, align 8
  %tmp = alloca ptr, align 8
  store ptr %s, ptr %s.addr, align 8
  store ptr %owner, ptr %owner.addr, align 8
  store ptr %parent, ptr %parent.addr, align 8
  store ptr %subs, ptr %subs.addr, align 8
  %frombool = zext i1 %qext to i8
  store i8 %frombool, ptr %qext.addr, align 1
  %frombool1 = zext i1 %edid to i8
  store i8 %frombool1, ptr %edid.addr, align 1
  %0 = load ptr, ptr %s.addr, align 8
  store ptr %0, ptr %__mptr, align 8
  %1 = load ptr, ptr %__mptr, align 8
  %add.ptr = getelementptr i8, ptr %1, i64 -2608
  store ptr %add.ptr, ptr %tmp, align 8
  %2 = load ptr, ptr %tmp, align 8
  store ptr %2, ptr %d, align 8
  %3 = load ptr, ptr %subs.addr, align 8
  %arrayidx = getelementptr %struct.MemoryRegion, ptr %3, i64 0
  %4 = load ptr, ptr %owner.addr, align 8
  %5 = load ptr, ptr %s.addr, align 8
  call void @memory_region_init_io(ptr noundef %arrayidx, ptr noundef %4, ptr noundef @pci_vga_ioport_ops, ptr noundef %5, ptr noundef @.str, i64 noundef 32)
  %6 = load ptr, ptr %parent.addr, align 8
  %7 = load ptr, ptr %subs.addr, align 8
  %arrayidx2 = getelementptr %struct.MemoryRegion, ptr %7, i64 0
  call void @memory_region_add_subregion(ptr noundef %6, i64 noundef 1024, ptr noundef %arrayidx2)
  %8 = load ptr, ptr %subs.addr, align 8
  %arrayidx3 = getelementptr %struct.MemoryRegion, ptr %8, i64 1
  %9 = load ptr, ptr %owner.addr, align 8
  %10 = load ptr, ptr %s.addr, align 8
  call void @memory_region_init_io(ptr noundef %arrayidx3, ptr noundef %9, ptr noundef @pci_vga_bochs_ops, ptr noundef %10, ptr noundef @.str.1, i64 noundef 22)
  %11 = load ptr, ptr %parent.addr, align 8
  %12 = load ptr, ptr %subs.addr, align 8
  %arrayidx4 = getelementptr %struct.MemoryRegion, ptr %12, i64 1
  call void @memory_region_add_subregion(ptr noundef %11, i64 noundef 1280, ptr noundef %arrayidx4)
  %13 = load i8, ptr %qext.addr, align 1
  %tobool = trunc i8 %13 to i1
  br i1 %tobool, label %if.then, label %if.end

if.then:                                          ; preds = %entry
  %14 = load ptr, ptr %subs.addr, align 8
  %arrayidx5 = getelementptr %struct.MemoryRegion, ptr %14, i64 2
  %15 = load ptr, ptr %owner.addr, align 8
  %16 = load ptr, ptr %s.addr, align 8
  call void @memory_region_init_io(ptr noundef %arrayidx5, ptr noundef %15, ptr noundef @pci_vga_qext_ops, ptr noundef %16, ptr noundef @.str.2, i64 noundef 8)
  %17 = load ptr, ptr %parent.addr, align 8
  %18 = load ptr, ptr %subs.addr, align 8
  %arrayidx6 = getelementptr %struct.MemoryRegion, ptr %18, i64 2
  call void @memory_region_add_subregion(ptr noundef %17, i64 noundef 1536, ptr noundef %arrayidx6)
  br label %if.end

if.end:                                           ; preds = %if.then, %entry
  %19 = load i8, ptr %edid.addr, align 1
  %tobool7 = trunc i8 %19 to i1
  br i1 %tobool7, label %if.then8, label %if.end14

if.then8:                                         ; preds = %if.end
  %20 = load ptr, ptr %d, align 8
  %edid9 = getelementptr inbounds %struct.PCIVGAState, ptr %20, i32 0, i32 6
  %arraydecay = getelementptr inbounds [384 x i8], ptr %edid9, i64 0, i64 0
  %21 = load ptr, ptr %d, align 8
  %edid_info = getelementptr inbounds %struct.PCIVGAState, ptr %21, i32 0, i32 3
  call void @qemu_edid_generate(ptr noundef %arraydecay, i64 noundef 384, ptr noundef %edid_info)
  %22 = load ptr, ptr %subs.addr, align 8
  %arrayidx10 = getelementptr %struct.MemoryRegion, ptr %22, i64 3
  %23 = load ptr, ptr %owner.addr, align 8
  %24 = load ptr, ptr %d, align 8
  %edid11 = getelementptr inbounds %struct.PCIVGAState, ptr %24, i32 0, i32 6
  %arraydecay12 = getelementptr inbounds [384 x i8], ptr %edid11, i64 0, i64 0
  call void @qemu_edid_region_io(ptr noundef %arrayidx10, ptr noundef %23, ptr noundef %arraydecay12, i64 noundef 384)
  %25 = load ptr, ptr %parent.addr, align 8
  %26 = load ptr, ptr %subs.addr, align 8
  %arrayidx13 = getelementptr %struct.MemoryRegion, ptr %26, i64 3
  call void @memory_region_add_subregion(ptr noundef %25, i64 noundef 0, ptr noundef %arrayidx13)
  br label %if.end14

if.end14:                                         ; preds = %if.then8, %if.end
  ret void
}