; Function Attrs: nounwind sspstrong uwtable
define dso_local void @pci_std_vga_mmio_region_init(ptr noundef %s, ptr noundef %owner, ptr noundef %parent, ptr noundef %subs, i1 noundef zeroext %qext, i1 noundef zeroext %edid) local_unnamed_addr #0 {
entry:
  tail call void @memory_region_init_io(ptr noundef %subs, ptr noundef %owner, ptr noundef nonnull @pci_vga_ioport_ops, ptr noundef %s, ptr noundef nonnull @.str, i64 noundef 32) #4
  tail call void @memory_region_add_subregion(ptr noundef %parent, i64 noundef 1024, ptr noundef %subs) #4
  %arrayidx3 = getelementptr i8, ptr %subs, i64 272
  tail call void @memory_region_init_io(ptr noundef %arrayidx3, ptr noundef %owner, ptr noundef nonnull @pci_vga_bochs_ops, ptr noundef %s, ptr noundef nonnull @.str.1, i64 noundef 22) #4
  tail call void @memory_region_add_subregion(ptr noundef %parent, i64 noundef 1280, ptr noundef %arrayidx3) #4
  br i1 %qext, label %if.then, label %if.end

if.then:                                          ; preds = %entry
  %arrayidx5 = getelementptr i8, ptr %subs, i64 544
  tail call void @memory_region_init_io(ptr noundef %arrayidx5, ptr noundef %owner, ptr noundef nonnull @pci_vga_qext_ops, ptr noundef %s, ptr noundef nonnull @.str.2, i64 noundef 8) #4
  tail call void @memory_region_add_subregion(ptr noundef %parent, i64 noundef 1536, ptr noundef %arrayidx5) #4
  br label %if.end

if.end:                                           ; preds = %if.then, %entry
  br i1 %edid, label %if.then8, label %if.end14

if.then8:                                         ; preds = %if.end
  %edid9 = getelementptr i8, ptr %s, i64 69536
  %edid_info = getelementptr i8, ptr %s, i64 68120
  tail call void @qemu_edid_generate(ptr noundef %edid9, i64 noundef 384, ptr noundef %edid_info) #4
  %arrayidx10 = getelementptr i8, ptr %subs, i64 816
  tail call void @qemu_edid_region_io(ptr noundef %arrayidx10, ptr noundef %owner, ptr noundef %edid9, i64 noundef 384) #4
  tail call void @memory_region_add_subregion(ptr noundef %parent, i64 noundef 0, ptr noundef %arrayidx10) #4
  br label %if.end14

if.end14:                                         ; preds = %if.then8, %if.end
  ret void
}